target datalayout = "e-m:e-p270:32:32-p271:32:32-p272:64:64-i64:64-i128:128-f80:128-n8:16:32:64-S128"
target triple = "x86_64-pc-linux-gnu"

%class.XMemoryManager = type { %class.XLock, %class.XList, %"struct.XMemoryManager::Callbacks" }
%class.XLock = type { %class.PlatformMutex }
%class.PlatformMutex = type { %union.pthread_mutex_t }
%union.pthread_mutex_t = type { %struct.__pthread_mutex_s }
%struct.__pthread_mutex_s = type { i32, i32, i32, i32, i32, i16, i16, %struct.__pthread_internal_list }
%struct.__pthread_internal_list = type { ptr, ptr }
%class.XList = type { %class.XListNode, i64 }
%class.XListNode = type { ptr, ptr }
%"struct.XMemoryManager::Callbacks" = type { ptr, ptr, ptr, ptr, ptr, ptr }
%class.XMemory = type { i64, i64, %class.XListNode }

; Function Attrs: mustprogress nounwind uwtable
define linkonce_odr hidden void @_ZN7XMemory16shrink_from_backEm(ptr noundef nonnull align 8 dereferenceable(32) %0, i64 noundef %1) #1 comdat align 2 {
  %3 = alloca ptr, align 8
  %4 = alloca i64, align 8
  store ptr %0, ptr %3, align 8
  store i64 %1, ptr %4, align 8
  %5 = load ptr, ptr %3, align 8
  %6 = load i64, ptr %4, align 8
  %7 = getelementptr inbounds %class.XMemory, ptr %5, i32 0, i32 1
  %8 = load i64, ptr %7, align 8
  %9 = sub i64 %8, %6
  store i64 %9, ptr %7, align 8
  ret void
}

; Function Attrs: mustprogress nounwind uwtable
define hidden void @_ZN14XMemoryManager16shrink_from_backEP7XMemorym(ptr noundef nonnull align 8 dereferenceable(112) %0, ptr noundef %1, i64 noundef %2) #1 align 2 {
  %4 = alloca ptr, align 8
  %5 = alloca ptr, align 8
  %6 = alloca i64, align 8
  store ptr %0, ptr %4, align 8
  store ptr %1, ptr %5, align 8
  store i64 %2, ptr %6, align 8
  %7 = load ptr, ptr %4, align 8
  %8 = getelementptr inbounds %class.XMemoryManager, ptr %7, i32 0, i32 2
  %9 = getelementptr inbounds %"struct.XMemoryManager::Callbacks", ptr %8, i32 0, i32 3
  %10 = load ptr, ptr %9, align 8
  %11 = icmp ne ptr %10, null
  br i1 %11, label %12, label %18

12:                                               ; preds = %3
  %13 = getelementptr inbounds %class.XMemoryManager, ptr %7, i32 0, i32 2
  %14 = getelementptr inbounds %"struct.XMemoryManager::Callbacks", ptr %13, i32 0, i32 3
  %15 = load ptr, ptr %14, align 8
  %16 = load ptr, ptr %5, align 8
  %17 = load i64, ptr %6, align 8
  call void %15(ptr noundef %16, i64 noundef %17)
  br label %18

18:                                               ; preds = %12, %3
  %19 = load ptr, ptr %5, align 8
  %20 = load i64, ptr %6, align 8
  call void @_ZN7XMemory16shrink_from_backEm(ptr noundef nonnull align 8 dereferenceable(32) %19, i64 noundef %20)
  ret void
}